; Function Attrs: null_pointer_is_valid sspstrong uwtable
define internal i32 @wkssvc_dissect_NetrGetJoinableOus2_request(ptr noundef %0, i32 noundef %1, ptr noundef %2, ptr noundef %3, ptr noundef initializes((72, 80)) %4, ptr noundef %5) #0 {
  %7 = getelementptr inbounds nuw i8, ptr %4, i64 72
  store ptr @.str.676, ptr %7, align 8
  %8 = load i32, ptr @hf_wkssvc_wkssvc_NetrGetJoinableOus2_server_name, align 4
  %9 = tail call i32 @dissect_ndr_toplevel_pointer(ptr noundef %0, i32 noundef %1, ptr noundef %2, ptr noundef %3, ptr noundef %4, ptr noundef %5, ptr noundef nonnull @wkssvc_dissect_element_NetrGetJoinableOus2_server_name_, i32 noundef 1, ptr noundef nonnull @.str.598, i32 noundef %8)
  %10 = tail call i32 @dissect_deferred_pointers(ptr noundef %2, ptr noundef %0, i32 noundef %9, ptr noundef %4, ptr noundef %5)
  %11 = load i32, ptr @hf_wkssvc_wkssvc_NetrGetJoinableOus2_domain_name, align 4
  %12 = tail call i32 @dissect_ndr_toplevel_pointer(ptr noundef %0, i32 noundef %10, ptr noundef %2, ptr noundef %3, ptr noundef %4, ptr noundef %5, ptr noundef nonnull @wkssvc_dissect_element_NetrGetJoinableOus2_domain_name_, i32 noundef 1, ptr noundef nonnull @.str.599, i32 noundef %11)
  %13 = tail call i32 @dissect_deferred_pointers(ptr noundef %2, ptr noundef %0, i32 noundef %12, ptr noundef %4, ptr noundef %5)
  %14 = load i32, ptr @hf_wkssvc_wkssvc_NetrGetJoinableOus2_Account, align 4
  %15 = tail call i32 @dissect_ndr_toplevel_pointer(ptr noundef %0, i32 noundef %13, ptr noundef %2, ptr noundef %3, ptr noundef %4, ptr noundef %5, ptr noundef nonnull @wkssvc_dissect_element_NetrGetJoinableOus2_Account_, i32 noundef 1, ptr noundef nonnull @.str.750, i32 noundef %14)
  %16 = tail call i32 @dissect_deferred_pointers(ptr noundef %2, ptr noundef %0, i32 noundef %15, ptr noundef %4, ptr noundef %5)
  %17 = load i32, ptr @hf_wkssvc_wkssvc_NetrGetJoinableOus2_EncryptedPassword, align 4
  %18 = tail call i32 @dissect_ndr_toplevel_pointer(ptr noundef %0, i32 noundef %16, ptr noundef %2, ptr noundef %3, ptr noundef %4, ptr noundef %5, ptr noundef nonnull @wkssvc_dissect_element_NetrGetJoinableOus2_EncryptedPassword_, i32 noundef 1, ptr noundef nonnull @.str.759, i32 noundef %17)
  %19 = tail call i32 @dissect_deferred_pointers(ptr noundef %2, ptr noundef %0, i32 noundef %18, ptr noundef %4, ptr noundef %5)
  %20 = load i32, ptr @hf_wkssvc_wkssvc_NetrGetJoinableOus2_num_ous, align 4
  %21 = tail call i32 @dissect_ndr_toplevel_pointer(ptr noundef %0, i32 noundef %19, ptr noundef %2, ptr noundef %3, ptr noundef %4, ptr noundef %5, ptr noundef nonnull @wkssvc_dissect_element_NetrGetJoinableOus2_num_ous_, i32 noundef 1, ptr noundef nonnull @.str.754, i32 noundef %20)
  %22 = tail call i32 @dissect_deferred_pointers(ptr noundef %2, ptr noundef %0, i32 noundef %21, ptr noundef %4, ptr noundef %5)
  ret i32 %22
}